target datalayout = "e-m:e-p270:32:32-p271:32:32-p272:64:64-i64:64-i128:128-f80:128-n8:16:32:64-S128"
target triple = "x86_64-pc-linux-gnu"

%struct.Abc_Ntk_t_ = type { i32, i32, ptr, ptr, ptr, ptr, ptr, ptr, ptr, ptr, ptr, ptr, ptr, [11 x i32], i32, i32, i32, i32, ptr, i32, ptr, ptr, i32, i32, i32, double, i32, %struct.Vec_Int_t_, ptr, ptr, ptr, ptr, ptr, float, i32, ptr, ptr, ptr, ptr, ptr, ptr, ptr, ptr, ptr, ptr, ptr, ptr, ptr, ptr, ptr, ptr, ptr, ptr, ptr, ptr, ptr, ptr }
%struct.Vec_Int_t_ = type { i32, i32, ptr }
%struct.Abc_Obj_t_ = type { ptr, ptr, i32, i32, %struct.Vec_Int_t_, %struct.Vec_Int_t_, %union.anon, %union.anon.0 }
%union.anon = type { ptr }
%union.anon.0 = type { ptr }
%struct.Vec_Ptr_t_ = type { i32, i32, ptr }

; Function Attrs: inlinehint nounwind uwtable
define internal void @Vec_PtrFree(ptr noundef %0) #2 {
  %2 = alloca ptr, align 8
  store ptr %0, ptr %2, align 8, !tbaa !32
  %3 = load ptr, ptr %2, align 8, !tbaa !32
  %4 = getelementptr inbounds nuw %struct.Vec_Ptr_t_, ptr %3, i32 0, i32 2
  %5 = load ptr, ptr %4, align 8, !tbaa !71
  %6 = icmp ne ptr %5, null
  br i1 %6, label %7, label %13

7:                                                ; preds = %1
  %8 = load ptr, ptr %2, align 8, !tbaa !32
  %9 = getelementptr inbounds nuw %struct.Vec_Ptr_t_, ptr %8, i32 0, i32 2
  %10 = load ptr, ptr %9, align 8, !tbaa !71
  call void @free(ptr noundef %10) #10
  %11 = load ptr, ptr %2, align 8, !tbaa !32
  %12 = getelementptr inbounds nuw %struct.Vec_Ptr_t_, ptr %11, i32 0, i32 2
  store ptr null, ptr %12, align 8, !tbaa !71
  br label %14

13:                                               ; preds = %1
  br label %14

14:                                               ; preds = %13, %7
  %15 = load ptr, ptr %2, align 8, !tbaa !32
  %16 = icmp ne ptr %15, null
  br i1 %16, label %17, label %19

17:                                               ; preds = %14
  %18 = load ptr, ptr %2, align 8, !tbaa !32
  call void @free(ptr noundef %18) #10
  store ptr null, ptr %2, align 8, !tbaa !32
  br label %20

19:                                               ; preds = %14
  br label %20

20:                                               ; preds = %19, %17
  ret void
}

; Function Attrs: inlinehint nounwind uwtable
define internal i32 @Abc_ObjFaninC1(ptr noundef %0) #2 {
  %2 = alloca ptr, align 8
  store ptr %0, ptr %2, align 8, !tbaa !26
  %3 = load ptr, ptr %2, align 8, !tbaa !26
  %4 = getelementptr inbounds nuw %struct.Abc_Obj_t_, ptr %3, i32 0, i32 3
  %5 = load i32, ptr %4, align 4
  %6 = lshr i32 %5, 11
  %7 = and i32 %6, 1
  ret i32 %7
}

; Function Attrs: inlinehint nounwind uwtable
define internal i32 @Abc_ObjFaninC0(ptr noundef %0) #2 {
  %2 = alloca ptr, align 8
  store ptr %0, ptr %2, align 8, !tbaa !26
  %3 = load ptr, ptr %2, align 8, !tbaa !26
  %4 = getelementptr inbounds nuw %struct.Abc_Obj_t_, ptr %3, i32 0, i32 3
  %5 = load i32, ptr %4, align 4
  %6 = lshr i32 %5, 10
  %7 = and i32 %6, 1
  ret i32 %7
}

; Function Attrs: inlinehint nounwind uwtable
define internal i32 @Abc_ObjFaninId1(ptr noundef %0) #2 {
  %2 = alloca ptr, align 8
  store ptr %0, ptr %2, align 8, !tbaa !26
  %3 = load ptr, ptr %2, align 8, !tbaa !26
  %4 = getelementptr inbounds nuw %struct.Abc_Obj_t_, ptr %3, i32 0, i32 4
  %5 = getelementptr inbounds nuw %struct.Vec_Int_t_, ptr %4, i32 0, i32 2
  %6 = load ptr, ptr %5, align 8, !tbaa !73
  %7 = getelementptr inbounds i32, ptr %6, i64 1
  %8 = load i32, ptr %7, align 4, !tbaa !8
  ret i32 %8
}

; Function Attrs: inlinehint nounwind uwtable
define internal i32 @Abc_ObjFaninId0(ptr noundef %0) #2 {
  %2 = alloca ptr, align 8
  store ptr %0, ptr %2, align 8, !tbaa !26
  %3 = load ptr, ptr %2, align 8, !tbaa !26
  %4 = getelementptr inbounds nuw %struct.Abc_Obj_t_, ptr %3, i32 0, i32 4
  %5 = getelementptr inbounds nuw %struct.Vec_Int_t_, ptr %4, i32 0, i32 2
  %6 = load ptr, ptr %5, align 8, !tbaa !73
  %7 = getelementptr inbounds i32, ptr %6, i64 0
  %8 = load i32, ptr %7, align 4, !tbaa !8
  ret i32 %8
}

; Function Attrs: inlinehint nounwind uwtable
define internal i32 @Abc_ObjIsCo(ptr noundef %0) #2 {
  %2 = alloca ptr, align 8
  store ptr %0, ptr %2, align 8, !tbaa !26
  %3 = load ptr, ptr %2, align 8, !tbaa !26
  %4 = getelementptr inbounds nuw %struct.Abc_Obj_t_, ptr %3, i32 0, i32 3
  %5 = load i32, ptr %4, align 4
  %6 = and i32 %5, 15
  %7 = icmp eq i32 %6, 3
  br i1 %7, label %14, label %8

8:                                                ; preds = %1
  %9 = load ptr, ptr %2, align 8, !tbaa !26
  %10 = getelementptr inbounds nuw %struct.Abc_Obj_t_, ptr %9, i32 0, i32 3
  %11 = load i32, ptr %10, align 4
  %12 = and i32 %11, 15
  %13 = icmp eq i32 %12, 4
  br label %14

14:                                               ; preds = %8, %1
  %15 = phi i1 [ true, %1 ], [ %13, %8 ]
  %16 = zext i1 %15 to i32
  ret i32 %16
}

; Function Attrs: inlinehint nounwind uwtable
define internal ptr @Vec_PtrEntry(ptr noundef %0, i32 noundef %1) #2 {
  %3 = alloca ptr, align 8
  %4 = alloca i32, align 4
  store ptr %0, ptr %3, align 8, !tbaa !32
  store i32 %1, ptr %4, align 4, !tbaa !8
  %5 = load ptr, ptr %3, align 8, !tbaa !32
  %6 = getelementptr inbounds nuw %struct.Vec_Ptr_t_, ptr %5, i32 0, i32 2
  %7 = load ptr, ptr %6, align 8, !tbaa !71
  %8 = load i32, ptr %4, align 4, !tbaa !8
  %9 = sext i32 %8 to i64
  %10 = getelementptr inbounds ptr, ptr %7, i64 %9
  %11 = load ptr, ptr %10, align 8, !tbaa !72
  ret ptr %11
}

; Function Attrs: inlinehint nounwind uwtable
define internal i32 @Vec_PtrSize(ptr noundef %0) #2 {
  %2 = alloca ptr, align 8
  store ptr %0, ptr %2, align 8, !tbaa !32
  %3 = load ptr, ptr %2, align 8, !tbaa !32
  %4 = getelementptr inbounds nuw %struct.Vec_Ptr_t_, ptr %3, i32 0, i32 1
  %5 = load i32, ptr %4, align 4, !tbaa !33
  ret i32 %5
}

; Function Attrs: inlinehint nounwind uwtable
define internal i32 @Abc_ObjFanoutNum(ptr noundef %0) #2 {
  %2 = alloca ptr, align 8
  store ptr %0, ptr %2, align 8, !tbaa !26
  %3 = load ptr, ptr %2, align 8, !tbaa !26
  %4 = getelementptr inbounds nuw %struct.Abc_Obj_t_, ptr %3, i32 0, i32 5
  %5 = getelementptr inbounds nuw %struct.Vec_Int_t_, ptr %4, i32 0, i32 1
  %6 = load i32, ptr %5, align 4, !tbaa !28
  ret i32 %6
}

; Function Attrs: inlinehint nounwind uwtable
define internal ptr @Abc_NtkCi(ptr noundef %0, i32 noundef %1) #2 {
  %3 = alloca ptr, align 8
  %4 = alloca i32, align 4
  store ptr %0, ptr %3, align 8, !tbaa !3
  store i32 %1, ptr %4, align 4, !tbaa !8
  %5 = load ptr, ptr %3, align 8, !tbaa !3
  %6 = getelementptr inbounds nuw %struct.Abc_Ntk_t_, ptr %5, i32 0, i32 8
  %7 = load ptr, ptr %6, align 8, !tbaa !67
  %8 = load i32, ptr %4, align 4, !tbaa !8
  %9 = call ptr @Vec_PtrEntry(ptr noundef %7, i32 noundef %8)
  ret ptr %9
}

; Function Attrs: inlinehint nounwind uwtable
define internal i32 @Abc_NtkCiNum(ptr noundef %0) #2 {
  %2 = alloca ptr, align 8
  store ptr %0, ptr %2, align 8, !tbaa !3
  %3 = load ptr, ptr %2, align 8, !tbaa !3
  %4 = getelementptr inbounds nuw %struct.Abc_Ntk_t_, ptr %3, i32 0, i32 8
  %5 = load ptr, ptr %4, align 8, !tbaa !67
  %6 = call i32 @Vec_PtrSize(ptr noundef %5)
  ret i32 %6
}

; Function Attrs: nounwind uwtable
define void @Abc_NtkCutsOracle(ptr noundef %0, ptr noundef %1) #0 {
  %3 = alloca ptr, align 8
  %4 = alloca ptr, align 8
  %5 = alloca ptr, align 8
  %6 = alloca ptr, align 8
  %7 = alloca i32, align 4
  %8 = alloca i32, align 4
  store ptr %0, ptr %3, align 8, !tbaa !3
  store ptr %1, ptr %4, align 8, !tbaa !75
  call void @llvm.lifetime.start.p0(i64 8, ptr %5) #10
  call void @llvm.lifetime.start.p0(i64 8, ptr %6) #10
  call void @llvm.lifetime.start.p0(i64 4, ptr %7) #10
  call void @llvm.lifetime.start.p0(i64 4, ptr %8) #10
  %9 = load ptr, ptr %4, align 8, !tbaa !75
  %10 = call i32 @Cut_OracleReadDrop(ptr noundef %9)
  store i32 %10, ptr %8, align 4, !tbaa !8
  %11 = load i32, ptr %8, align 4, !tbaa !8
  %12 = icmp ne i32 %11, 0
  br i1 %12, label %13, label %17

13:                                               ; preds = %2
  %14 = load ptr, ptr %4, align 8, !tbaa !75
  %15 = load ptr, ptr %3, align 8, !tbaa !3
  %16 = call ptr @Abc_NtkFanoutCounts(ptr noundef %15)
  call void @Cut_OracleSetFanoutCounts(ptr noundef %14, ptr noundef %16)
  br label %17

17:                                               ; preds = %13, %2
  store i32 0, ptr %7, align 4, !tbaa !8
  br label %18

18:                                               ; preds = %39, %17
  %19 = load i32, ptr %7, align 4, !tbaa !8
  %20 = load ptr, ptr %3, align 8, !tbaa !3
  %21 = call i32 @Abc_NtkCiNum(ptr noundef %20)
  %22 = icmp slt i32 %19, %21
  br i1 %22, label %23, label %27

23:                                               ; preds = %18
  %24 = load ptr, ptr %3, align 8, !tbaa !3
  %25 = load i32, ptr %7, align 4, !tbaa !8
  %26 = call ptr @Abc_NtkCi(ptr noundef %24, i32 noundef %25)
  store ptr %26, ptr %5, align 8, !tbaa !26
  br label %27

27:                                               ; preds = %23, %18
  %28 = phi i1 [ false, %18 ], [ true, %23 ]
  br i1 %28, label %29, label %42

29:                                               ; preds = %27
  %30 = load ptr, ptr %5, align 8, !tbaa !26
  %31 = call i32 @Abc_ObjFanoutNum(ptr noundef %30)
  %32 = icmp sgt i32 %31, 0
  br i1 %32, label %33, label %38

33:                                               ; preds = %29
  %34 = load ptr, ptr %4, align 8, !tbaa !75
  %35 = load ptr, ptr %5, align 8, !tbaa !26
  %36 = getelementptr inbounds nuw %struct.Abc_Obj_t_, ptr %35, i32 0, i32 2
  %37 = load i32, ptr %36, align 8, !tbaa !48
  call void @Cut_OracleNodeSetTriv(ptr noundef %34, i32 noundef %37)
  br label %38

38:                                               ; preds = %33, %29
  br label %39

39:                                               ; preds = %38
  %40 = load i32, ptr %7, align 4, !tbaa !8
  %41 = add nsw i32 %40, 1
  store i32 %41, ptr %7, align 4, !tbaa !8
  br label %18, !llvm.loop !77

42:                                               ; preds = %27
  %43 = load ptr, ptr %3, align 8, !tbaa !3
  %44 = call ptr @Abc_AigDfs(ptr noundef %43, i32 noundef 0, i32 noundef 1)
  store ptr %44, ptr %6, align 8, !tbaa !32
  store i32 0, ptr %7, align 4, !tbaa !8
  br label %45

45:                                               ; preds = %92, %42
  %46 = load i32, ptr %7, align 4, !tbaa !8
  %47 = load ptr, ptr %6, align 8, !tbaa !32
  %48 = call i32 @Vec_PtrSize(ptr noundef %47)
  %49 = icmp slt i32 %46, %48
  br i1 %49, label %50, label %54

50:                                               ; preds = %45
  %51 = load ptr, ptr %6, align 8, !tbaa !32
  %52 = load i32, ptr %7, align 4, !tbaa !8
  %53 = call ptr @Vec_PtrEntry(ptr noundef %51, i32 noundef %52)
  store ptr %53, ptr %5, align 8, !tbaa !26
  br label %54

54:                                               ; preds = %50, %45
  %55 = phi i1 [ false, %45 ], [ true, %50 ]
  br i1 %55, label %56, label %95

56:                                               ; preds = %54
  %57 = load ptr, ptr %5, align 8, !tbaa !26
  %58 = call i32 @Abc_ObjIsCo(ptr noundef %57)
  %59 = icmp ne i32 %58, 0
  br i1 %59, label %60, label %68

60:                                               ; preds = %56
  %61 = load i32, ptr %8, align 4, !tbaa !8
  %62 = icmp ne i32 %61, 0
  br i1 %62, label %63, label %67

63:                                               ; preds = %60
  %64 = load ptr, ptr %4, align 8, !tbaa !75
  %65 = load ptr, ptr %5, align 8, !tbaa !26
  %66 = call i32 @Abc_ObjFaninId0(ptr noundef %65)
  call void @Cut_OracleTryDroppingCuts(ptr noundef %64, i32 noundef %66)
  br label %67

67:                                               ; preds = %63, %60
  br label %92

68:                                               ; preds = %56
  %69 = load ptr, ptr %4, align 8, !tbaa !75
  %70 = load ptr, ptr %5, align 8, !tbaa !26
  %71 = getelementptr inbounds nuw %struct.Abc_Obj_t_, ptr %70, i32 0, i32 2
  %72 = load i32, ptr %71, align 8, !tbaa !48
  %73 = load ptr, ptr %5, align 8, !tbaa !26
  %74 = call i32 @Abc_ObjFaninId0(ptr noundef %73)
  %75 = load ptr, ptr %5, align 8, !tbaa !26
  %76 = call i32 @Abc_ObjFaninId1(ptr noundef %75)
  %77 = load ptr, ptr %5, align 8, !tbaa !26
  %78 = call i32 @Abc_ObjFaninC0(ptr noundef %77)
  %79 = load ptr, ptr %5, align 8, !tbaa !26
  %80 = call i32 @Abc_ObjFaninC1(ptr noundef %79)
  %81 = call ptr @Cut_OracleComputeCuts(ptr noundef %69, i32 noundef %72, i32 noundef %74, i32 noundef %76, i32 noundef %78, i32 noundef %80)
  %82 = load i32, ptr %8, align 4, !tbaa !8
  %83 = icmp ne i32 %82, 0
  br i1 %83, label %84, label %91

84:                                               ; preds = %68
  %85 = load ptr, ptr %4, align 8, !tbaa !75
  %86 = load ptr, ptr %5, align 8, !tbaa !26
  %87 = call i32 @Abc_ObjFaninId0(ptr noundef %86)
  call void @Cut_OracleTryDroppingCuts(ptr noundef %85, i32 noundef %87)
  %88 = load ptr, ptr %4, align 8, !tbaa !75
  %89 = load ptr, ptr %5, align 8, !tbaa !26
  %90 = call i32 @Abc_ObjFaninId1(ptr noundef %89)
  call void @Cut_OracleTryDroppingCuts(ptr noundef %88, i32 noundef %90)
  br label %91

91:                                               ; preds = %84, %68
  br label %92

92:                                               ; preds = %91, %67
  %93 = load i32, ptr %7, align 4, !tbaa !8
  %94 = add nsw i32 %93, 1
  store i32 %94, ptr %7, align 4, !tbaa !8
  br label %45, !llvm.loop !78

95:                                               ; preds = %54
  %96 = load ptr, ptr %6, align 8, !tbaa !32
  call void @Vec_PtrFree(ptr noundef %96)
  call void @llvm.lifetime.end.p0(i64 4, ptr %8) #10
  call void @llvm.lifetime.end.p0(i64 4, ptr %7) #10
  call void @llvm.lifetime.end.p0(i64 8, ptr %6) #10
  call void @llvm.lifetime.end.p0(i64 8, ptr %5) #10
  ret void
}