; Function Attrs: nounwind uwtable
define void @Abc_NtkCutsOracle(ptr noundef %0, ptr noundef %1) local_unnamed_addr #0 {
  %3 = tail call i32 @Cut_OracleReadDrop(ptr noundef %1) #13
  %.not = icmp eq i32 %3, 0
  br i1 %.not, label %6, label %4

4:                                                ; preds = %2
  %5 = tail call ptr @Abc_NtkFanoutCounts(ptr noundef %0) #13
  tail call void @Cut_OracleSetFanoutCounts(ptr noundef %1, ptr noundef %5) #13
  br label %6

6:                                                ; preds = %4, %2
  %7 = getelementptr i8, ptr %0, i64 56
  %.val3948 = load ptr, ptr %7, align 8, !tbaa !53
  %8 = getelementptr i8, ptr %.val3948, i64 4
  %.val39.val49 = load i32, ptr %8, align 4, !tbaa !24
  %9 = icmp sgt i32 %.val39.val49, 0
  br i1 %9, label %.lr.ph, label %.critedge

.lr.ph:                                           ; preds = %6, %18
  %.val3963 = phi ptr [ %.val39, %18 ], [ %.val3948, %6 ]
  %indvars.iv = phi i64 [ %indvars.iv.next, %18 ], [ 0, %6 ]
  %10 = getelementptr i8, ptr %.val3963, i64 8
  %.val40.val = load ptr, ptr %10, align 8, !tbaa !26
  %11 = getelementptr inbounds nuw ptr, ptr %.val40.val, i64 %indvars.iv
  %12 = load ptr, ptr %11, align 8, !tbaa !27
  %13 = getelementptr i8, ptr %12, i64 44
  %.val38 = load i32, ptr %13, align 4, !tbaa !30
  %14 = icmp sgt i32 %.val38, 0
  br i1 %14, label %15, label %18

15:                                               ; preds = %.lr.ph
  %16 = getelementptr inbounds nuw i8, ptr %12, i64 16
  %17 = load i32, ptr %16, align 8, !tbaa !50
  tail call void @Cut_OracleNodeSetTriv(ptr noundef %1, i32 noundef %17) #13
  %.val39.pre = load ptr, ptr %7, align 8, !tbaa !53
  br label %18

18:                                               ; preds = %.lr.ph, %15
  %.val39 = phi ptr [ %.val3963, %.lr.ph ], [ %.val39.pre, %15 ]
  %indvars.iv.next = add nuw nsw i64 %indvars.iv, 1
  %19 = getelementptr i8, ptr %.val39, i64 4
  %.val39.val = load i32, ptr %19, align 4, !tbaa !24
  %20 = sext i32 %.val39.val to i64
  %21 = icmp slt i64 %indvars.iv.next, %20
  br i1 %21, label %.lr.ph, label %.critedge, !llvm.loop !70

.critedge:                                        ; preds = %18, %6
  %22 = tail call ptr @Abc_AigDfs(ptr noundef nonnull %0, i32 noundef 0, i32 noundef 1) #13
  %23 = getelementptr i8, ptr %22, i64 4
  %.val52 = load i32, ptr %23, align 4, !tbaa !24
  %24 = icmp sgt i32 %.val52, 0
  br i1 %24, label %.lr.ph54, label %.critedge2

.lr.ph54:                                         ; preds = %.critedge
  %25 = getelementptr i8, ptr %22, i64 8
  br i1 %.not, label %.lr.ph54.split.us, label %.lr.ph54.split

.lr.ph54.split.us:                                ; preds = %.lr.ph54, %41
  %.val.us65 = phi i32 [ %.val.us, %41 ], [ %.val52, %.lr.ph54 ]
  %indvars.iv60 = phi i64 [ %indvars.iv.next61, %41 ], [ 0, %.lr.ph54 ]
  %.val36.us = load ptr, ptr %25, align 8, !tbaa !26
  %26 = getelementptr inbounds nuw ptr, ptr %.val36.us, i64 %indvars.iv60
  %27 = load ptr, ptr %26, align 8, !tbaa !27
  %28 = getelementptr i8, ptr %27, i64 20
  %.val37.us = load i32, ptr %28, align 4
  %29 = and i32 %.val37.us, 15
  %30 = add nsw i32 %29, -5
  %narrow.i.us = icmp ult i32 %30, -2
  br i1 %narrow.i.us, label %31, label %41

31:                                               ; preds = %.lr.ph54.split.us
  %32 = getelementptr inbounds nuw i8, ptr %27, i64 16
  %33 = load i32, ptr %32, align 8, !tbaa !50
  %34 = getelementptr i8, ptr %27, i64 32
  %.val42.us = load ptr, ptr %34, align 8, !tbaa !49
  %.val42.val.us = load i32, ptr %.val42.us, align 4, !tbaa !41
  %35 = getelementptr i8, ptr %.val42.us, i64 4
  %.val45.val.us = load i32, ptr %35, align 4, !tbaa !41
  %36 = lshr i32 %.val37.us, 10
  %37 = and i32 %36, 1
  %38 = lshr i32 %.val37.us, 11
  %39 = and i32 %38, 1
  %40 = tail call ptr @Cut_OracleComputeCuts(ptr noundef %1, i32 noundef %33, i32 noundef %.val42.val.us, i32 noundef %.val45.val.us, i32 noundef %37, i32 noundef %39) #13
  %.val.us.pre = load i32, ptr %23, align 4, !tbaa !24
  br label %41

41:                                               ; preds = %.lr.ph54.split.us, %31
  %.val.us = phi i32 [ %.val.us65, %.lr.ph54.split.us ], [ %.val.us.pre, %31 ]
  %indvars.iv.next61 = add nuw nsw i64 %indvars.iv60, 1
  %42 = sext i32 %.val.us to i64
  %43 = icmp slt i64 %indvars.iv.next61, %42
  br i1 %43, label %.lr.ph54.split.us, label %.critedge2, !llvm.loop !71

.lr.ph54.split:                                   ; preds = %.lr.ph54, %62
  %indvars.iv57 = phi i64 [ %indvars.iv.next58, %62 ], [ 0, %.lr.ph54 ]
  %.val36 = load ptr, ptr %25, align 8, !tbaa !26
  %44 = getelementptr inbounds nuw ptr, ptr %.val36, i64 %indvars.iv57
  %45 = load ptr, ptr %44, align 8, !tbaa !27
  %46 = getelementptr i8, ptr %45, i64 20
  %.val37 = load i32, ptr %46, align 4
  %47 = and i32 %.val37, 15
  %48 = add nsw i32 %47, -5
  %narrow.i = icmp ult i32 %48, -2
  br i1 %narrow.i, label %51, label %49

49:                                               ; preds = %.lr.ph54.split
  %50 = getelementptr i8, ptr %45, i64 32
  %.val43 = load ptr, ptr %50, align 8, !tbaa !49
  br label %62

51:                                               ; preds = %.lr.ph54.split
  %52 = getelementptr inbounds nuw i8, ptr %45, i64 16
  %53 = load i32, ptr %52, align 8, !tbaa !50
  %54 = getelementptr i8, ptr %45, i64 32
  %.val42 = load ptr, ptr %54, align 8, !tbaa !49
  %.val42.val = load i32, ptr %.val42, align 4, !tbaa !41
  %55 = getelementptr i8, ptr %.val42, i64 4
  %.val45.val = load i32, ptr %55, align 4, !tbaa !41
  %56 = lshr i32 %.val37, 10
  %57 = and i32 %56, 1
  %58 = lshr i32 %.val37, 11
  %59 = and i32 %58, 1
  %60 = tail call ptr @Cut_OracleComputeCuts(ptr noundef %1, i32 noundef %53, i32 noundef %.val42.val, i32 noundef %.val45.val, i32 noundef %57, i32 noundef %59) #13
  %.val41 = load ptr, ptr %54, align 8, !tbaa !49
  %.val41.val = load i32, ptr %.val41, align 4, !tbaa !41
  tail call void @Cut_OracleTryDroppingCuts(ptr noundef %1, i32 noundef %.val41.val) #13
  %.val44 = load ptr, ptr %54, align 8, !tbaa !49
  %61 = getelementptr i8, ptr %.val44, i64 4
  br label %62

62:                                               ; preds = %51, %49
  %.val44.val.sink.in = phi ptr [ %61, %51 ], [ %.val43, %49 ]
  %.val44.val.sink = load i32, ptr %.val44.val.sink.in, align 4, !tbaa !41
  tail call void @Cut_OracleTryDroppingCuts(ptr noundef %1, i32 noundef %.val44.val.sink) #13
  %indvars.iv.next58 = add nuw nsw i64 %indvars.iv57, 1
  %.val = load i32, ptr %23, align 4, !tbaa !24
  %63 = sext i32 %.val to i64
  %64 = icmp slt i64 %indvars.iv.next58, %63
  br i1 %64, label %.lr.ph54.split, label %.critedge2, !llvm.loop !71

.critedge2:                                       ; preds = %62, %41, %.critedge
  %65 = getelementptr inbounds nuw i8, ptr %22, i64 8
  %66 = load ptr, ptr %65, align 8, !tbaa !26
  %.not.i = icmp eq ptr %66, null
  br i1 %.not.i, label %Vec_PtrFree.exit, label %67

67:                                               ; preds = %.critedge2
  tail call void @free(ptr noundef nonnull %66) #13
  br label %Vec_PtrFree.exit

Vec_PtrFree.exit:                                 ; preds = %.critedge2, %67
  tail call void @free(ptr noundef nonnull %22) #13
  ret void
}